; ModuleID = '15/362.c'
source_filename = "15/362.c"
target datalayout = "e-m:e-p270:32:32-p271:32:32-p272:64:64-i64:64-f80:128-n8:16:32:64-S128"
target triple = "x86_64-pc-linux-gnu"

@.str = private unnamed_addr constant [3 x i8] c"%d\00", align 1

; Function Attrs: noinline nounwind uwtable
define dso_local void @main() #0 {
  %1 = alloca i32, align 4
  %2 = alloca i32, align 4
  %3 = alloca i32, align 4
  %4 = alloca i32, align 4
  %5 = alloca [30 x [30 x i32]], align 16
  %6 = alloca i32, align 4
  %7 = alloca i32, align 4
  %8 = alloca i32, align 4
  %9 = alloca i32, align 4
  %10 = call i32 (i8*, ...) @__isoc99_scanf(i8* getelementptr inbounds ([3 x i8], [3 x i8]* @.str, i64 0, i64 0), i32* %2)
  store i32 0, i32* %1, align 4
  br label %11

11:                                               ; preds = %32, %0
  %12 = load i32, i32* %1, align 4
  %13 = load i32, i32* %2, align 4
  %14 = icmp slt i32 %12, %13
  br i1 %14, label %15, label %35

15:                                               ; preds = %11
  store i32 0, i32* %3, align 4
  br label %16

16:                                               ; preds = %28, %15
  %17 = load i32, i32* %3, align 4
  %18 = load i32, i32* %2, align 4
  %19 = icmp slt i32 %17, %18
  br i1 %19, label %20, label %31

20:                                               ; preds = %16
  %21 = load i32, i32* %1, align 4
  %22 = sext i32 %21 to i64
  %23 = getelementptr inbounds [30 x [30 x i32]], [30 x [30 x i32]]* %5, i64 0, i64 %22
  %24 = load i32, i32* %3, align 4
  %25 = sext i32 %24 to i64
  %26 = getelementptr inbounds [30 x i32], [30 x i32]* %23, i64 0, i64 %25
  %27 = call i32 (i8*, ...) @__isoc99_scanf(i8* getelementptr inbounds ([3 x i8], [3 x i8]* @.str, i64 0, i64 0), i32* %26)
  br label %28

28:                                               ; preds = %20
  %29 = load i32, i32* %3, align 4
  %30 = add nsw i32 %29, 1
  store i32 %30, i32* %3, align 4
  br label %16

31:                                               ; preds = %16
  br label %32

32:                                               ; preds = %31
  %33 = load i32, i32* %1, align 4
  %34 = add nsw i32 %33, 1
  store i32 %34, i32* %1, align 4
  br label %11

35:                                               ; preds = %11
  store i32 0, i32* %1, align 4
  store i32 0, i32* %3, align 4
  store i32 0, i32* %1, align 4
  br label %36

36:                                               ; preds = %114, %35
  %37 = load i32, i32* %1, align 4
  %38 = load i32, i32* %2, align 4
  %39 = icmp slt i32 %37, %38
  br i1 %39, label %40, label %117

40:                                               ; preds = %36
  store i32 0, i32* %3, align 4
  br label %41

41:                                               ; preds = %110, %40
  %42 = load i32, i32* %3, align 4
  %43 = load i32, i32* %2, align 4
  %44 = icmp slt i32 %42, %43
  br i1 %44, label %45, label %113

45:                                               ; preds = %41
  %46 = load i32, i32* %1, align 4
  %47 = sext i32 %46 to i64
  %48 = getelementptr inbounds [30 x [30 x i32]], [30 x [30 x i32]]* %5, i64 0, i64 %47
  %49 = load i32, i32* %3, align 4
  %50 = sext i32 %49 to i64
  %51 = getelementptr inbounds [30 x i32], [30 x i32]* %48, i64 0, i64 %50
  %52 = load i32, i32* %51, align 4
  %53 = icmp eq i32 %52, 0
  br i1 %53, label %54, label %77

54:                                               ; preds = %45
  %55 = load i32, i32* %1, align 4
  %56 = sext i32 %55 to i64
  %57 = getelementptr inbounds [30 x [30 x i32]], [30 x [30 x i32]]* %5, i64 0, i64 %56
  %58 = load i32, i32* %3, align 4
  %59 = sub nsw i32 %58, 1
  %60 = sext i32 %59 to i64
  %61 = getelementptr inbounds [30 x i32], [30 x i32]* %57, i64 0, i64 %60
  %62 = load i32, i32* %61, align 4
  %63 = icmp ne i32 %62, 0
  br i1 %63, label %64, label %77

64:                                               ; preds = %54
  %65 = load i32, i32* %1, align 4
  %66 = sub nsw i32 %65, 1
  %67 = sext i32 %66 to i64
  %68 = getelementptr inbounds [30 x [30 x i32]], [30 x [30 x i32]]* %5, i64 0, i64 %67
  %69 = load i32, i32* %3, align 4
  %70 = sext i32 %69 to i64
  %71 = getelementptr inbounds [30 x i32], [30 x i32]* %68, i64 0, i64 %70
  %72 = load i32, i32* %71, align 4
  %73 = icmp ne i32 %72, 0
  br i1 %73, label %74, label %77

74:                                               ; preds = %64
  %75 = load i32, i32* %1, align 4
  store i32 %75, i32* %6, align 4
  %76 = load i32, i32* %3, align 4
  store i32 %76, i32* %7, align 4
  br label %77

77:                                               ; preds = %74, %64, %54, %45
  %78 = load i32, i32* %1, align 4
  %79 = sext i32 %78 to i64
  %80 = getelementptr inbounds [30 x [30 x i32]], [30 x [30 x i32]]* %5, i64 0, i64 %79
  %81 = load i32, i32* %3, align 4
  %82 = sext i32 %81 to i64
  %83 = getelementptr inbounds [30 x i32], [30 x i32]* %80, i64 0, i64 %82
  %84 = load i32, i32* %83, align 4
  %85 = icmp eq i32 %84, 0
  br i1 %85, label %86, label %109

86:                                               ; preds = %77
  %87 = load i32, i32* %1, align 4
  %88 = sext i32 %87 to i64
  %89 = getelementptr inbounds [30 x [30 x i32]], [30 x [30 x i32]]* %5, i64 0, i64 %88
  %90 = load i32, i32* %3, align 4
  %91 = add nsw i32 %90, 1
  %92 = sext i32 %91 to i64
  %93 = getelementptr inbounds [30 x i32], [30 x i32]* %89, i64 0, i64 %92
  %94 = load i32, i32* %93, align 4
  %95 = icmp ne i32 %94, 0
  br i1 %95, label %96, label %109

96:                                               ; preds = %86
  %97 = load i32, i32* %1, align 4
  %98 = add nsw i32 %97, 1
  %99 = sext i32 %98 to i64
  %100 = getelementptr inbounds [30 x [30 x i32]], [30 x [30 x i32]]* %5, i64 0, i64 %99
  %101 = load i32, i32* %3, align 4
  %102 = sext i32 %101 to i64
  %103 = getelementptr inbounds [30 x i32], [30 x i32]* %100, i64 0, i64 %102
  %104 = load i32, i32* %103, align 4
  %105 = icmp ne i32 %104, 0
  br i1 %105, label %106, label %109

106:                                              ; preds = %96
  %107 = load i32, i32* %1, align 4
  store i32 %107, i32* %8, align 4
  %108 = load i32, i32* %3, align 4
  store i32 %108, i32* %9, align 4
  br label %109

109:                                              ; preds = %106, %96, %86, %77
  br label %110

110:                                              ; preds = %109
  %111 = load i32, i32* %3, align 4
  %112 = add nsw i32 %111, 1
  store i32 %112, i32* %3, align 4
  br label %41

113:                                              ; preds = %41
  br label %114

114:                                              ; preds = %113
  %115 = load i32, i32* %1, align 4
  %116 = add nsw i32 %115, 1
  store i32 %116, i32* %1, align 4
  br label %36

117:                                              ; preds = %36
  %118 = load i32, i32* %8, align 4
  %119 = load i32, i32* %6, align 4
  %120 = sub nsw i32 %118, %119
  %121 = sub nsw i32 %120, 1
  %122 = load i32, i32* %9, align 4
  %123 = load i32, i32* %7, align 4
  %124 = sub nsw i32 %122, %123
  %125 = sub nsw i32 %124, 1
  %126 = mul nsw i32 %121, %125
  store i32 %126, i32* %4, align 4
  %127 = load i32, i32* %4, align 4
  %128 = call i32 (i8*, ...) @printf(i8* getelementptr inbounds ([3 x i8], [3 x i8]* @.str, i64 0, i64 0), i32 %127)
  ret void
}

declare dso_local i32 @__isoc99_scanf(i8*, ...) #1

declare dso_local i32 @printf(i8*, ...) #1


!llvm.module.flags = !{!0}
!llvm.ident = !{!1}

!0 = !{i32 1, !"wchar_size", i32 4}
!1 = !{!"clang version 10.0.0-4ubuntu1 "}
